	.cpu cortex-m4
	.arch armv7e-m
	.fpu fpv4-sp-d16
	.eabi_attribute 27, 1
	.eabi_attribute 28, 1
	.eabi_attribute 20, 1
	.eabi_attribute 21, 1
	.eabi_attribute 23, 3
	.eabi_attribute 24, 1
	.eabi_attribute 25, 1
	.eabi_attribute 26, 1
	.eabi_attribute 30, 6
	.eabi_attribute 34, 1
	.eabi_attribute 38, 1
	.eabi_attribute 18, 4
	.file	"boards.c"
	.text
.Ltext0:
	.file 1 "/home/youssef/Desktop/work/dwm1001-UWB/nRF5_SDK_14.2.0/components/boards/boards.c"
	.section	.text.nrf_gpio_pin_port_decode,"ax",%progbits
	.align	1
	.syntax unified
	.thumb
	.thumb_func
	.type	nrf_gpio_pin_port_decode, %function
nrf_gpio_pin_port_decode:
.LFB136:
	.file 2 "../../../nRF5_SDK_14.2.0/components/drivers_nrf/hal/nrf_gpio.h"
	.loc 2 463 1
	@ args = 0, pretend = 0, frame = 8
	@ frame_needed = 0, uses_anonymous_args = 0
	@ link register save eliminated.
	sub	sp, sp, #8
.LCFI0:
	str	r0, [sp, #4]
	.loc 2 467 12
	mov	r3, #1342177280
	.loc 2 479 1
	mov	r0, r3
	add	sp, sp, #8
.LCFI1:
	@ sp needed
	bx	lr
.LFE136:
	.size	nrf_gpio_pin_port_decode, .-nrf_gpio_pin_port_decode
	.section	.text.nrf_gpio_cfg,"ax",%progbits
	.align	1
	.syntax unified
	.thumb
	.thumb_func
	.type	nrf_gpio_cfg, %function
nrf_gpio_cfg:
.LFB139:
	.loc 2 511 1
	@ args = 8, pretend = 0, frame = 16
	@ frame_needed = 0, uses_anonymous_args = 0
	push	{lr}
.LCFI2:
	sub	sp, sp, #20
.LCFI3:
	str	r0, [sp, #4]
	mov	r0, r1
	mov	r1, r2
	mov	r2, r3
	mov	r3, r0
	strb	r3, [sp, #3]
	mov	r3, r1
	strb	r3, [sp, #2]
	mov	r3, r2
	strb	r3, [sp, #1]
	.loc 2 512 27
	add	r3, sp, #4
	mov	r0, r3
	bl	nrf_gpio_pin_port_decode
	str	r0, [sp, #12]
	.loc 2 514 47
	ldrb	r2, [sp, #3]	@ zero_extendqisi2
	.loc 2 515 35
	ldrb	r3, [sp, #2]	@ zero_extendqisi2
	.loc 2 515 51
	lsls	r3, r3, #1
	.loc 2 515 32
	orrs	r2, r2, r3
	.loc 2 516 35
	ldrb	r3, [sp, #1]	@ zero_extendqisi2
	.loc 2 516 50
	lsls	r3, r3, #2
	.loc 2 516 32
	orrs	r2, r2, r3
	.loc 2 517 35
	ldrb	r3, [sp, #24]	@ zero_extendqisi2
	.loc 2 517 51
	lsls	r3, r3, #8
	.loc 2 517 32
	orr	r1, r2, r3
	.loc 2 518 35
	ldrb	r3, [sp, #28]	@ zero_extendqisi2
	.loc 2 518 51
	lsls	r3, r3, #16
	.loc 2 514 17
	ldr	r2, [sp, #4]
	.loc 2 518 32
	orrs	r1, r1, r3
	.loc 2 514 30
	ldr	r3, [sp, #12]
	add	r2, r2, #448
	str	r1, [r3, r2, lsl #2]
	.loc 2 519 1
	nop
	add	sp, sp, #20
.LCFI4:
	@ sp needed
	ldr	pc, [sp], #4
.LFE139:
	.size	nrf_gpio_cfg, .-nrf_gpio_cfg
	.section	.text.nrf_gpio_cfg_output,"ax",%progbits
	.align	1
	.syntax unified
	.thumb
	.thumb_func
	.type	nrf_gpio_cfg_output, %function
nrf_gpio_cfg_output:
.LFB140:
	.loc 2 523 1
	@ args = 0, pretend = 0, frame = 8
	@ frame_needed = 0, uses_anonymous_args = 0
	push	{lr}
.LCFI5:
	sub	sp, sp, #20
.LCFI6:
	str	r0, [sp, #12]
	.loc 2 524 5
	movs	r3, #0
	str	r3, [sp, #4]
	movs	r3, #0
	str	r3, [sp]
	movs	r3, #0
	movs	r2, #1
	movs	r1, #1
	ldr	r0, [sp, #12]
	bl	nrf_gpio_cfg
	.loc 2 531 1
	nop
	add	sp, sp, #20
.LCFI7:
	@ sp needed
	ldr	pc, [sp], #4
.LFE140:
	.size	nrf_gpio_cfg_output, .-nrf_gpio_cfg_output
	.section	.text.nrf_gpio_cfg_input,"ax",%progbits
	.align	1
	.syntax unified
	.thumb
	.thumb_func
	.type	nrf_gpio_cfg_input, %function
nrf_gpio_cfg_input:
.LFB141:
	.loc 2 535 1
	@ args = 0, pretend = 0, frame = 8
	@ frame_needed = 0, uses_anonymous_args = 0
	push	{lr}
.LCFI8:
	sub	sp, sp, #20
.LCFI9:
	str	r0, [sp, #12]
	mov	r3, r1
	strb	r3, [sp, #11]
	.loc 2 536 5
	ldrb	r3, [sp, #11]	@ zero_extendqisi2
	movs	r2, #0
	str	r2, [sp, #4]
	movs	r2, #0
	str	r2, [sp]
	movs	r2, #0
	movs	r1, #0
	ldr	r0, [sp, #12]
	bl	nrf_gpio_cfg
	.loc 2 543 1
	nop
	add	sp, sp, #20
.LCFI10:
	@ sp needed
	ldr	pc, [sp], #4
.LFE141:
	.size	nrf_gpio_cfg_input, .-nrf_gpio_cfg_input
	.section	.text.nrf_gpio_pin_set,"ax",%progbits
	.align	1
	.syntax unified
	.thumb
	.thumb_func
	.type	nrf_gpio_pin_set, %function
nrf_gpio_pin_set:
.LFB148:
	.loc 2 623 1
	@ args = 0, pretend = 0, frame = 16
	@ frame_needed = 0, uses_anonymous_args = 0
	push	{lr}
.LCFI11:
	sub	sp, sp, #20
.LCFI12:
	str	r0, [sp, #4]
	.loc 2 624 27
	add	r3, sp, #4
	mov	r0, r3
	bl	nrf_gpio_pin_port_decode
	str	r0, [sp, #12]
	.loc 2 626 5
	ldr	r3, [sp, #4]
	movs	r2, #1
	lsl	r3, r2, r3
	mov	r1, r3
	ldr	r0, [sp, #12]
	bl	nrf_gpio_port_out_set
	.loc 2 627 1
	nop
	add	sp, sp, #20
.LCFI13:
	@ sp needed
	ldr	pc, [sp], #4
.LFE148:
	.size	nrf_gpio_pin_set, .-nrf_gpio_pin_set
	.section	.text.nrf_gpio_pin_clear,"ax",%progbits
	.align	1
	.syntax unified
	.thumb
	.thumb_func
	.type	nrf_gpio_pin_clear, %function
nrf_gpio_pin_clear:
.LFB149:
	.loc 2 631 1
	@ args = 0, pretend = 0, frame = 16
	@ frame_needed = 0, uses_anonymous_args = 0
	push	{lr}
.LCFI14:
	sub	sp, sp, #20
.LCFI15:
	str	r0, [sp, #4]
	.loc 2 632 27
	add	r3, sp, #4
	mov	r0, r3
	bl	nrf_gpio_pin_port_decode
	str	r0, [sp, #12]
	.loc 2 634 5
	ldr	r3, [sp, #4]
	movs	r2, #1
	lsl	r3, r2, r3
	mov	r1, r3
	ldr	r0, [sp, #12]
	bl	nrf_gpio_port_out_clear
	.loc 2 635 1
	nop
	add	sp, sp, #20
.LCFI16:
	@ sp needed
	ldr	pc, [sp], #4
.LFE149:
	.size	nrf_gpio_pin_clear, .-nrf_gpio_pin_clear
	.section	.text.nrf_gpio_pin_toggle,"ax",%progbits
	.align	1
	.syntax unified
	.thumb
	.thumb_func
	.type	nrf_gpio_pin_toggle, %function
nrf_gpio_pin_toggle:
.LFB150:
	.loc 2 639 1
	@ args = 0, pretend = 0, frame = 16
	@ frame_needed = 0, uses_anonymous_args = 0
	push	{lr}
.LCFI17:
	sub	sp, sp, #20
.LCFI18:
	str	r0, [sp, #4]
	.loc 2 640 34
	add	r3, sp, #4
	mov	r0, r3
	bl	nrf_gpio_pin_port_decode
	str	r0, [sp, #12]
	.loc 2 641 21
	ldr	r3, [sp, #12]
	ldr	r3, [r3, #1284]
	str	r3, [sp, #8]
	.loc 2 643 20
	ldr	r3, [sp, #8]
	mvns	r2, r3
	.loc 2 643 39
	ldr	r3, [sp, #4]
	movs	r1, #1
	lsl	r3, r1, r3
	.loc 2 643 32
	ands	r2, r2, r3
	.loc 2 643 17
	ldr	r3, [sp, #12]
	str	r2, [r3, #1288]
	.loc 2 644 38
	ldr	r3, [sp, #4]
	movs	r2, #1
	lsls	r2, r2, r3
	.loc 2 644 31
	ldr	r3, [sp, #8]
	ands	r2, r2, r3
	.loc 2 644 17
	ldr	r3, [sp, #12]
	str	r2, [r3, #1292]
	.loc 2 645 1
	nop
	add	sp, sp, #20
.LCFI19:
	@ sp needed
	ldr	pc, [sp], #4
.LFE150:
	.size	nrf_gpio_pin_toggle, .-nrf_gpio_pin_toggle
	.section	.text.nrf_gpio_pin_write,"ax",%progbits
	.align	1
	.syntax unified
	.thumb
	.thumb_func
	.type	nrf_gpio_pin_write, %function
nrf_gpio_pin_write:
.LFB151:
	.loc 2 649 1
	@ args = 0, pretend = 0, frame = 8
	@ frame_needed = 0, uses_anonymous_args = 0
	push	{lr}
.LCFI20:
	sub	sp, sp, #12
.LCFI21:
	str	r0, [sp, #4]
	str	r1, [sp]
	.loc 2 650 8
	ldr	r3, [sp]
	cmp	r3, #0
	bne	.L10
	.loc 2 652 9
	ldr	r0, [sp, #4]
	bl	nrf_gpio_pin_clear
	.loc 2 658 1
	b	.L12
.L10:
	.loc 2 656 9
	ldr	r0, [sp, #4]
	bl	nrf_gpio_pin_set
.L12:
	.loc 2 658 1
	nop
	add	sp, sp, #12
.LCFI22:
	@ sp needed
	ldr	pc, [sp], #4
.LFE151:
	.size	nrf_gpio_pin_write, .-nrf_gpio_pin_write
	.section	.text.nrf_gpio_pin_read,"ax",%progbits
	.align	1
	.syntax unified
	.thumb
	.thumb_func
	.type	nrf_gpio_pin_read, %function
nrf_gpio_pin_read:
.LFB152:
	.loc 2 662 1
	@ args = 0, pretend = 0, frame = 16
	@ frame_needed = 0, uses_anonymous_args = 0
	push	{lr}
.LCFI23:
	sub	sp, sp, #20
.LCFI24:
	str	r0, [sp, #4]
	.loc 2 663 27
	add	r3, sp, #4
	mov	r0, r3
	bl	nrf_gpio_pin_port_decode
	str	r0, [sp, #12]
	.loc 2 665 14
	ldr	r0, [sp, #12]
	bl	nrf_gpio_port_in_read
	mov	r2, r0
	.loc 2 665 41
	ldr	r3, [sp, #4]
	lsr	r3, r2, r3
	.loc 2 665 56
	and	r3, r3, #1
	.loc 2 666 1
	mov	r0, r3
	add	sp, sp, #20
.LCFI25:
	@ sp needed
	ldr	pc, [sp], #4
.LFE152:
	.size	nrf_gpio_pin_read, .-nrf_gpio_pin_read
	.section	.text.nrf_gpio_pin_out_read,"ax",%progbits
	.align	1
	.syntax unified
	.thumb
	.thumb_func
	.type	nrf_gpio_pin_out_read, %function
nrf_gpio_pin_out_read:
.LFB153:
	.loc 2 670 1
	@ args = 0, pretend = 0, frame = 16
	@ frame_needed = 0, uses_anonymous_args = 0
	push	{lr}
.LCFI26:
	sub	sp, sp, #20
.LCFI27:
	str	r0, [sp, #4]
	.loc 2 671 27
	add	r3, sp, #4
	mov	r0, r3
	bl	nrf_gpio_pin_port_decode
	str	r0, [sp, #12]
	.loc 2 673 14
	ldr	r0, [sp, #12]
	bl	nrf_gpio_port_out_read
	mov	r2, r0
	.loc 2 673 42
	ldr	r3, [sp, #4]
	lsr	r3, r2, r3
	.loc 2 673 57
	and	r3, r3, #1
	.loc 2 674 1
	mov	r0, r3
	add	sp, sp, #20
.LCFI28:
	@ sp needed
	ldr	pc, [sp], #4
.LFE153:
	.size	nrf_gpio_pin_out_read, .-nrf_gpio_pin_out_read
	.section	.text.nrf_gpio_port_in_read,"ax",%progbits
	.align	1
	.syntax unified
	.thumb
	.thumb_func
	.type	nrf_gpio_port_in_read, %function
nrf_gpio_port_in_read:
.LFB159:
	.loc 2 711 1
	@ args = 0, pretend = 0, frame = 8
	@ frame_needed = 0, uses_anonymous_args = 0
	@ link register save eliminated.
	sub	sp, sp, #8
.LCFI29:
	str	r0, [sp, #4]
	.loc 2 712 17
	ldr	r3, [sp, #4]
	ldr	r3, [r3, #1296]
	.loc 2 713 1
	mov	r0, r3
	add	sp, sp, #8
.LCFI30:
	@ sp needed
	bx	lr
.LFE159:
	.size	nrf_gpio_port_in_read, .-nrf_gpio_port_in_read
	.section	.text.nrf_gpio_port_out_read,"ax",%progbits
	.align	1
	.syntax unified
	.thumb
	.thumb_func
	.type	nrf_gpio_port_out_read, %function
nrf_gpio_port_out_read:
.LFB160:
	.loc 2 717 1
	@ args = 0, pretend = 0, frame = 8
	@ frame_needed = 0, uses_anonymous_args = 0
	@ link register save eliminated.
	sub	sp, sp, #8
.LCFI31:
	str	r0, [sp, #4]
	.loc 2 718 17
	ldr	r3, [sp, #4]
	ldr	r3, [r3, #1284]
	.loc 2 719 1
	mov	r0, r3
	add	sp, sp, #8
.LCFI32:
	@ sp needed
	bx	lr
.LFE160:
	.size	nrf_gpio_port_out_read, .-nrf_gpio_port_out_read
	.section	.text.nrf_gpio_port_out_set,"ax",%progbits
	.align	1
	.syntax unified
	.thumb
	.thumb_func
	.type	nrf_gpio_port_out_set, %function
nrf_gpio_port_out_set:
.LFB162:
	.loc 2 729 1
	@ args = 0, pretend = 0, frame = 8
	@ frame_needed = 0, uses_anonymous_args = 0
	@ link register save eliminated.
	sub	sp, sp, #8
.LCFI33:
	str	r0, [sp, #4]
	str	r1, [sp]
	.loc 2 730 19
	ldr	r3, [sp, #4]
	ldr	r2, [sp]
	str	r2, [r3, #1288]
	.loc 2 731 1
	nop
	add	sp, sp, #8
.LCFI34:
	@ sp needed
	bx	lr
.LFE162:
	.size	nrf_gpio_port_out_set, .-nrf_gpio_port_out_set
	.section	.text.nrf_gpio_port_out_clear,"ax",%progbits
	.align	1
	.syntax unified
	.thumb
	.thumb_func
	.type	nrf_gpio_port_out_clear, %function
nrf_gpio_port_out_clear:
.LFB163:
	.loc 2 735 1
	@ args = 0, pretend = 0, frame = 8
	@ frame_needed = 0, uses_anonymous_args = 0
	@ link register save eliminated.
	sub	sp, sp, #8
.LCFI35:
	str	r0, [sp, #4]
	str	r1, [sp]
	.loc 2 736 19
	ldr	r3, [sp, #4]
	ldr	r2, [sp]
	str	r2, [r3, #1292]
	.loc 2 737 1
	nop
	add	sp, sp, #8
.LCFI36:
	@ sp needed
	bx	lr
.LFE163:
	.size	nrf_gpio_port_out_clear, .-nrf_gpio_port_out_clear
	.section	.rodata.m_board_led_list,"a"
	.align	2
	.type	m_board_led_list, %object
	.size	m_board_led_list, 4
m_board_led_list:
	.ascii	"\036\037\026\016"
	.section	.rodata.m_board_btn_list,"a"
	.align	2
	.type	m_board_btn_list, %object
	.size	m_board_btn_list, 4
m_board_btn_list:
	.ascii	"\015\016\017\020"
	.section	.text.bsp_board_led_state_get,"ax",%progbits
	.align	1
	.global	bsp_board_led_state_get
	.syntax unified
	.thumb
	.thumb_func
	.type	bsp_board_led_state_get, %function
bsp_board_led_state_get:
.LFB168:
	.loc 1 54 1
	@ args = 0, pretend = 0, frame = 16
	@ frame_needed = 0, uses_anonymous_args = 0
	push	{lr}
.LCFI37:
	sub	sp, sp, #20
.LCFI38:
	str	r0, [sp, #4]
	.loc 1 56 58
	ldr	r2, .L25
	ldr	r3, [sp, #4]
	add	r3, r3, r2
	ldrb	r3, [r3]	@ zero_extendqisi2
	.loc 1 56 20
	mov	r0, r3
	bl	nrf_gpio_pin_out_read
	mov	r3, r0
	.loc 1 56 10
	cmp	r3, #0
	ite	ne
	movne	r3, #1
	moveq	r3, #0
	strb	r3, [sp, #15]
	.loc 1 57 5
	ldrb	r3, [sp, #15]	@ zero_extendqisi2
	cmp	r3, #0
	ite	ne
	movne	r3, #1
	moveq	r3, #0
	uxtb	r3, r3
	eor	r3, r3, #1
	uxtb	r3, r3
	.loc 1 57 21
	and	r3, r3, #1
	uxtb	r3, r3
	.loc 1 58 1
	mov	r0, r3
	add	sp, sp, #20
.LCFI39:
	@ sp needed
	ldr	pc, [sp], #4
.L26:
	.align	2
.L25:
	.word	m_board_led_list
.LFE168:
	.size	bsp_board_led_state_get, .-bsp_board_led_state_get
	.section	.text.bsp_board_led_on,"ax",%progbits
	.align	1
	.global	bsp_board_led_on
	.syntax unified
	.thumb
	.thumb_func
	.type	bsp_board_led_on, %function
bsp_board_led_on:
.LFB169:
	.loc 1 61 1
	@ args = 0, pretend = 0, frame = 8
	@ frame_needed = 0, uses_anonymous_args = 0
	push	{lr}
.LCFI40:
	sub	sp, sp, #12
.LCFI41:
	str	r0, [sp, #4]
	.loc 1 63 44
	ldr	r2, .L28
	ldr	r3, [sp, #4]
	add	r3, r3, r2
	ldrb	r3, [r3]	@ zero_extendqisi2
	.loc 1 63 9
	movs	r1, #0
	mov	r0, r3
	bl	nrf_gpio_pin_write
	.loc 1 64 1
	nop
	add	sp, sp, #12
.LCFI42:
	@ sp needed
	ldr	pc, [sp], #4
.L29:
	.align	2
.L28:
	.word	m_board_led_list
.LFE169:
	.size	bsp_board_led_on, .-bsp_board_led_on
	.section	.text.bsp_board_led_off,"ax",%progbits
	.align	1
	.global	bsp_board_led_off
	.syntax unified
	.thumb
	.thumb_func
	.type	bsp_board_led_off, %function
bsp_board_led_off:
.LFB170:
	.loc 1 67 1
	@ args = 0, pretend = 0, frame = 8
	@ frame_needed = 0, uses_anonymous_args = 0
	push	{lr}
.LCFI43:
	sub	sp, sp, #12
.LCFI44:
	str	r0, [sp, #4]
	.loc 1 69 40
	ldr	r2, .L31
	ldr	r3, [sp, #4]
	add	r3, r3, r2
	ldrb	r3, [r3]	@ zero_extendqisi2
	.loc 1 69 5
	movs	r1, #1
	mov	r0, r3
	bl	nrf_gpio_pin_write
	.loc 1 70 1
	nop
	add	sp, sp, #12
.LCFI45:
	@ sp needed
	ldr	pc, [sp], #4
.L32:
	.align	2
.L31:
	.word	m_board_led_list
.LFE170:
	.size	bsp_board_led_off, .-bsp_board_led_off
	.section	.text.bsp_board_leds_off,"ax",%progbits
	.align	1
	.global	bsp_board_leds_off
	.syntax unified
	.thumb
	.thumb_func
	.type	bsp_board_leds_off, %function
bsp_board_leds_off:
.LFB171:
	.loc 1 73 1
	@ args = 0, pretend = 0, frame = 8
	@ frame_needed = 0, uses_anonymous_args = 0
	push	{lr}
.LCFI46:
	sub	sp, sp, #12
.LCFI47:
	.loc 1 75 12
	movs	r3, #0
	str	r3, [sp, #4]
	.loc 1 75 5
	b	.L34
.L35:
	.loc 1 77 9 discriminator 3
	ldr	r0, [sp, #4]
	bl	bsp_board_led_off
	.loc 1 75 34 discriminator 3
	ldr	r3, [sp, #4]
	adds	r3, r3, #1
	str	r3, [sp, #4]
.L34:
	.loc 1 75 19 discriminator 1
	ldr	r3, [sp, #4]
	cmp	r3, #3
	bls	.L35
	.loc 1 79 1
	nop
	nop
	add	sp, sp, #12
.LCFI48:
	@ sp needed
	ldr	pc, [sp], #4
.LFE171:
	.size	bsp_board_leds_off, .-bsp_board_leds_off
	.section	.text.bsp_board_leds_on,"ax",%progbits
	.align	1
	.global	bsp_board_leds_on
	.syntax unified
	.thumb
	.thumb_func
	.type	bsp_board_leds_on, %function
bsp_board_leds_on:
.LFB172:
	.loc 1 82 1
	@ args = 0, pretend = 0, frame = 8
	@ frame_needed = 0, uses_anonymous_args = 0
	push	{lr}
.LCFI49:
	sub	sp, sp, #12
.LCFI50:
	.loc 1 84 12
	movs	r3, #0
	str	r3, [sp, #4]
	.loc 1 84 5
	b	.L37
.L38:
	.loc 1 86 9 discriminator 3
	ldr	r0, [sp, #4]
	bl	bsp_board_led_on
	.loc 1 84 34 discriminator 3
	ldr	r3, [sp, #4]
	adds	r3, r3, #1
	str	r3, [sp, #4]
.L37:
	.loc 1 84 19 discriminator 1
	ldr	r3, [sp, #4]
	cmp	r3, #3
	bls	.L38
	.loc 1 88 1
	nop
	nop
	add	sp, sp, #12
.LCFI51:
	@ sp needed
	ldr	pc, [sp], #4
.LFE172:
	.size	bsp_board_leds_on, .-bsp_board_leds_on
	.section	.text.bsp_board_led_invert,"ax",%progbits
	.align	1
	.global	bsp_board_led_invert
	.syntax unified
	.thumb
	.thumb_func
	.type	bsp_board_led_invert, %function
bsp_board_led_invert:
.LFB173:
	.loc 1 91 1
	@ args = 0, pretend = 0, frame = 8
	@ frame_needed = 0, uses_anonymous_args = 0
	push	{lr}
.LCFI52:
	sub	sp, sp, #12
.LCFI53:
	str	r0, [sp, #4]
	.loc 1 93 41
	ldr	r2, .L40
	ldr	r3, [sp, #4]
	add	r3, r3, r2
	ldrb	r3, [r3]	@ zero_extendqisi2
	.loc 1 93 5
	mov	r0, r3
	bl	nrf_gpio_pin_toggle
	.loc 1 94 1
	nop
	add	sp, sp, #12
.LCFI54:
	@ sp needed
	ldr	pc, [sp], #4
.L41:
	.align	2
.L40:
	.word	m_board_led_list
.LFE173:
	.size	bsp_board_led_invert, .-bsp_board_led_invert
	.section	.text.bsp_board_leds_init,"ax",%progbits
	.align	1
	.global	bsp_board_leds_init
	.syntax unified
	.thumb
	.thumb_func
	.type	bsp_board_leds_init, %function
bsp_board_leds_init:
.LFB174:
	.loc 1 97 1
	@ args = 0, pretend = 0, frame = 8
	@ frame_needed = 0, uses_anonymous_args = 0
	push	{lr}
.LCFI55:
	sub	sp, sp, #12
.LCFI56:
	.loc 1 99 12
	movs	r3, #0
	str	r3, [sp, #4]
	.loc 1 99 5
	b	.L43
.L44:
	.loc 1 101 45 discriminator 3
	ldr	r2, .L45
	ldr	r3, [sp, #4]
	add	r3, r3, r2
	ldrb	r3, [r3]	@ zero_extendqisi2
	.loc 1 101 9 discriminator 3
	mov	r0, r3
	bl	nrf_gpio_cfg_output
	.loc 1 99 34 discriminator 3
	ldr	r3, [sp, #4]
	adds	r3, r3, #1
	str	r3, [sp, #4]
.L43:
	.loc 1 99 19 discriminator 1
	ldr	r3, [sp, #4]
	cmp	r3, #3
	bls	.L44
	.loc 1 103 5
	bl	bsp_board_leds_off
	.loc 1 104 1
	nop
	add	sp, sp, #12
.LCFI57:
	@ sp needed
	ldr	pc, [sp], #4
.L46:
	.align	2
.L45:
	.word	m_board_led_list
.LFE174:
	.size	bsp_board_leds_init, .-bsp_board_leds_init
	.section	.text.bsp_board_led_idx_to_pin,"ax",%progbits
	.align	1
	.global	bsp_board_led_idx_to_pin
	.syntax unified
	.thumb
	.thumb_func
	.type	bsp_board_led_idx_to_pin, %function
bsp_board_led_idx_to_pin:
.LFB175:
	.loc 1 107 1
	@ args = 0, pretend = 0, frame = 8
	@ frame_needed = 0, uses_anonymous_args = 0
	@ link register save eliminated.
	sub	sp, sp, #8
.LCFI58:
	str	r0, [sp, #4]
	.loc 1 109 28
	ldr	r2, .L49
	ldr	r3, [sp, #4]
	add	r3, r3, r2
	ldrb	r3, [r3]	@ zero_extendqisi2
	.loc 1 110 1
	mov	r0, r3
	add	sp, sp, #8
.LCFI59:
	@ sp needed
	bx	lr
.L50:
	.align	2
.L49:
	.word	m_board_led_list
.LFE175:
	.size	bsp_board_led_idx_to_pin, .-bsp_board_led_idx_to_pin
	.section	.text.bsp_board_pin_to_led_idx,"ax",%progbits
	.align	1
	.global	bsp_board_pin_to_led_idx
	.syntax unified
	.thumb
	.thumb_func
	.type	bsp_board_pin_to_led_idx, %function
bsp_board_pin_to_led_idx:
.LFB176:
	.loc 1 113 1
	@ args = 0, pretend = 0, frame = 16
	@ frame_needed = 0, uses_anonymous_args = 0
	@ link register save eliminated.
	sub	sp, sp, #16
.LCFI60:
	str	r0, [sp, #4]
	.loc 1 114 14
	mov	r3, #-1
	str	r3, [sp, #12]
	.loc 1 116 12
	movs	r3, #0
	str	r3, [sp, #8]
	.loc 1 116 5
	b	.L52
.L55:
	.loc 1 118 29
	ldr	r2, .L57
	ldr	r3, [sp, #8]
	add	r3, r3, r2
	ldrb	r3, [r3]	@ zero_extendqisi2
	mov	r2, r3
	.loc 1 118 12
	ldr	r3, [sp, #4]
	cmp	r3, r2
	bne	.L53
	.loc 1 120 17
	ldr	r3, [sp, #8]
	str	r3, [sp, #12]
	.loc 1 121 13
	b	.L54
.L53:
	.loc 1 116 34 discriminator 2
	ldr	r3, [sp, #8]
	adds	r3, r3, #1
	str	r3, [sp, #8]
.L52:
	.loc 1 116 19 discriminator 1
	ldr	r3, [sp, #8]
	cmp	r3, #3
	bls	.L55
.L54:
	.loc 1 124 12
	ldr	r3, [sp, #12]
	.loc 1 125 1
	mov	r0, r3
	add	sp, sp, #16
.LCFI61:
	@ sp needed
	bx	lr
.L58:
	.align	2
.L57:
	.word	m_board_led_list
.LFE176:
	.size	bsp_board_pin_to_led_idx, .-bsp_board_pin_to_led_idx
	.section	.text.bsp_board_button_state_get,"ax",%progbits
	.align	1
	.global	bsp_board_button_state_get
	.syntax unified
	.thumb
	.thumb_func
	.type	bsp_board_button_state_get, %function
bsp_board_button_state_get:
.LFB177:
	.loc 1 130 1
	@ args = 0, pretend = 0, frame = 16
	@ frame_needed = 0, uses_anonymous_args = 0
	push	{lr}
.LCFI62:
	sub	sp, sp, #20
.LCFI63:
	str	r0, [sp, #4]
	.loc 1 132 54
	ldr	r2, .L61
	ldr	r3, [sp, #4]
	add	r3, r3, r2
	ldrb	r3, [r3]	@ zero_extendqisi2
	.loc 1 132 20
	mov	r0, r3
	bl	nrf_gpio_pin_read
	mov	r3, r0
	.loc 1 132 10
	cmp	r3, #0
	ite	ne
	movne	r3, #1
	moveq	r3, #0
	strb	r3, [sp, #15]
	.loc 1 133 5
	ldrb	r3, [sp, #15]	@ zero_extendqisi2
	cmp	r3, #0
	ite	ne
	movne	r3, #1
	moveq	r3, #0
	uxtb	r3, r3
	eor	r3, r3, #1
	uxtb	r3, r3
	.loc 1 133 21
	and	r3, r3, #1
	uxtb	r3, r3
	.loc 1 134 1
	mov	r0, r3
	add	sp, sp, #20
.LCFI64:
	@ sp needed
	ldr	pc, [sp], #4
.L62:
	.align	2
.L61:
	.word	m_board_btn_list
.LFE177:
	.size	bsp_board_button_state_get, .-bsp_board_button_state_get
	.section	.text.bsp_board_buttons_init,"ax",%progbits
	.align	1
	.global	bsp_board_buttons_init
	.syntax unified
	.thumb
	.thumb_func
	.type	bsp_board_buttons_init, %function
bsp_board_buttons_init:
.LFB178:
	.loc 1 137 1
	@ args = 0, pretend = 0, frame = 8
	@ frame_needed = 0, uses_anonymous_args = 0
	push	{lr}
.LCFI65:
	sub	sp, sp, #12
.LCFI66:
	.loc 1 139 12
	movs	r3, #0
	str	r3, [sp, #4]
	.loc 1 139 5
	b	.L64
.L65:
	.loc 1 141 44 discriminator 3
	ldr	r2, .L66
	ldr	r3, [sp, #4]
	add	r3, r3, r2
	ldrb	r3, [r3]	@ zero_extendqisi2
	.loc 1 141 9 discriminator 3
	movs	r1, #3
	mov	r0, r3
	bl	nrf_gpio_cfg_input
	.loc 1 139 37 discriminator 3
	ldr	r3, [sp, #4]
	adds	r3, r3, #1
	str	r3, [sp, #4]
.L64:
	.loc 1 139 19 discriminator 1
	ldr	r3, [sp, #4]
	cmp	r3, #3
	bls	.L65
	.loc 1 143 1
	nop
	nop
	add	sp, sp, #12
.LCFI67:
	@ sp needed
	ldr	pc, [sp], #4
.L67:
	.align	2
.L66:
	.word	m_board_btn_list
.LFE178:
	.size	bsp_board_buttons_init, .-bsp_board_buttons_init
	.section	.text.bsp_board_pin_to_button_idx,"ax",%progbits
	.align	1
	.global	bsp_board_pin_to_button_idx
	.syntax unified
	.thumb
	.thumb_func
	.type	bsp_board_pin_to_button_idx, %function
bsp_board_pin_to_button_idx:
.LFB179:
	.loc 1 146 1
	@ args = 0, pretend = 0, frame = 16
	@ frame_needed = 0, uses_anonymous_args = 0
	@ link register save eliminated.
	sub	sp, sp, #16
.LCFI68:
	str	r0, [sp, #4]
	.loc 1 148 14
	mov	r3, #-1
	str	r3, [sp, #8]
	.loc 1 149 12
	movs	r3, #0
	str	r3, [sp, #12]
	.loc 1 149 5
	b	.L69
.L72:
	.loc 1 151 29
	ldr	r2, .L74
	ldr	r3, [sp, #12]
	add	r3, r3, r2
	ldrb	r3, [r3]	@ zero_extendqisi2
	mov	r2, r3
	.loc 1 151 12
	ldr	r3, [sp, #4]
	cmp	r3, r2
	bne	.L70
	.loc 1 153 17
	ldr	r3, [sp, #12]
	str	r3, [sp, #8]
	.loc 1 154 13
	b	.L71
.L70:
	.loc 1 149 37 discriminator 2
	ldr	r3, [sp, #12]
	adds	r3, r3, #1
	str	r3, [sp, #12]
.L69:
	.loc 1 149 19 discriminator 1
	ldr	r3, [sp, #12]
	cmp	r3, #3
	bls	.L72
.L71:
	.loc 1 157 12
	ldr	r3, [sp, #8]
	.loc 1 158 1
	mov	r0, r3
	add	sp, sp, #16
.LCFI69:
	@ sp needed
	bx	lr
.L75:
	.align	2
.L74:
	.word	m_board_btn_list
.LFE179:
	.size	bsp_board_pin_to_button_idx, .-bsp_board_pin_to_button_idx
	.section	.text.bsp_board_button_idx_to_pin,"ax",%progbits
	.align	1
	.global	bsp_board_button_idx_to_pin
	.syntax unified
	.thumb
	.thumb_func
	.type	bsp_board_button_idx_to_pin, %function
bsp_board_button_idx_to_pin:
.LFB180:
	.loc 1 161 1
	@ args = 0, pretend = 0, frame = 8
	@ frame_needed = 0, uses_anonymous_args = 0
	@ link register save eliminated.
	sub	sp, sp, #8
.LCFI70:
	str	r0, [sp, #4]
	.loc 1 163 28
	ldr	r2, .L78
	ldr	r3, [sp, #4]
	add	r3, r3, r2
	ldrb	r3, [r3]	@ zero_extendqisi2
	.loc 1 164 1
	mov	r0, r3
	add	sp, sp, #8
.LCFI71:
	@ sp needed
	bx	lr
.L79:
	.align	2
.L78:
	.word	m_board_btn_list
.LFE180:
	.size	bsp_board_button_idx_to_pin, .-bsp_board_button_idx_to_pin
	.section	.debug_frame,"",%progbits
.Lframe0:
	.4byte	.LECIE0-.LSCIE0
.LSCIE0:
	.4byte	0xffffffff
	.byte	0x3
	.ascii	"\000"
	.uleb128 0x1
	.sleb128 -4
	.uleb128 0xe
	.byte	0xc
	.uleb128 0xd
	.uleb128 0
	.align	2
.LECIE0:
.LSFDE0:
	.4byte	.LEFDE0-.LASFDE0
.LASFDE0:
	.4byte	.Lframe0
	.4byte	.LFB136
	.4byte	.LFE136-.LFB136
	.byte	0x4
	.4byte	.LCFI0-.LFB136
	.byte	0xe
	.uleb128 0x8
	.byte	0x4
	.4byte	.LCFI1-.LCFI0
	.byte	0xe
	.uleb128 0
	.align	2
.LEFDE0:
.LSFDE2:
	.4byte	.LEFDE2-.LASFDE2
.LASFDE2:
	.4byte	.Lframe0
	.4byte	.LFB139
	.4byte	.LFE139-.LFB139
	.byte	0x4
	.4byte	.LCFI2-.LFB139
	.byte	0xe
	.uleb128 0x4
	.byte	0x8e
	.uleb128 0x1
	.byte	0x4
	.4byte	.LCFI3-.LCFI2
	.byte	0xe
	.uleb128 0x18
	.byte	0x4
	.4byte	.LCFI4-.LCFI3
	.byte	0xe
	.uleb128 0x4
	.align	2
.LEFDE2:
.LSFDE4:
	.4byte	.LEFDE4-.LASFDE4
.LASFDE4:
	.4byte	.Lframe0
	.4byte	.LFB140
	.4byte	.LFE140-.LFB140
	.byte	0x4
	.4byte	.LCFI5-.LFB140
	.byte	0xe
	.uleb128 0x4
	.byte	0x8e
	.uleb128 0x1
	.byte	0x4
	.4byte	.LCFI6-.LCFI5
	.byte	0xe
	.uleb128 0x18
	.byte	0x4
	.4byte	.LCFI7-.LCFI6
	.byte	0xe
	.uleb128 0x4
	.align	2
.LEFDE4:
.LSFDE6:
	.4byte	.LEFDE6-.LASFDE6
.LASFDE6:
	.4byte	.Lframe0
	.4byte	.LFB141
	.4byte	.LFE141-.LFB141
	.byte	0x4
	.4byte	.LCFI8-.LFB141
	.byte	0xe
	.uleb128 0x4
	.byte	0x8e
	.uleb128 0x1
	.byte	0x4
	.4byte	.LCFI9-.LCFI8
	.byte	0xe
	.uleb128 0x18
	.byte	0x4
	.4byte	.LCFI10-.LCFI9
	.byte	0xe
	.uleb128 0x4
	.align	2
.LEFDE6:
.LSFDE8:
	.4byte	.LEFDE8-.LASFDE8
.LASFDE8:
	.4byte	.Lframe0
	.4byte	.LFB148
	.4byte	.LFE148-.LFB148
	.byte	0x4
	.4byte	.LCFI11-.LFB148
	.byte	0xe
	.uleb128 0x4
	.byte	0x8e
	.uleb128 0x1
	.byte	0x4
	.4byte	.LCFI12-.LCFI11
	.byte	0xe
	.uleb128 0x18
	.byte	0x4
	.4byte	.LCFI13-.LCFI12
	.byte	0xe
	.uleb128 0x4
	.align	2
.LEFDE8:
.LSFDE10:
	.4byte	.LEFDE10-.LASFDE10
.LASFDE10:
	.4byte	.Lframe0
	.4byte	.LFB149
	.4byte	.LFE149-.LFB149
	.byte	0x4
	.4byte	.LCFI14-.LFB149
	.byte	0xe
	.uleb128 0x4
	.byte	0x8e
	.uleb128 0x1
	.byte	0x4
	.4byte	.LCFI15-.LCFI14
	.byte	0xe
	.uleb128 0x18
	.byte	0x4
	.4byte	.LCFI16-.LCFI15
	.byte	0xe
	.uleb128 0x4
	.align	2
.LEFDE10:
.LSFDE12:
	.4byte	.LEFDE12-.LASFDE12
.LASFDE12:
	.4byte	.Lframe0
	.4byte	.LFB150
	.4byte	.LFE150-.LFB150
	.byte	0x4
	.4byte	.LCFI17-.LFB150
	.byte	0xe
	.uleb128 0x4
	.byte	0x8e
	.uleb128 0x1
	.byte	0x4
	.4byte	.LCFI18-.LCFI17
	.byte	0xe
	.uleb128 0x18
	.byte	0x4
	.4byte	.LCFI19-.LCFI18
	.byte	0xe
	.uleb128 0x4
	.align	2
.LEFDE12:
.LSFDE14:
	.4byte	.LEFDE14-.LASFDE14
.LASFDE14:
	.4byte	.Lframe0
	.4byte	.LFB151
	.4byte	.LFE151-.LFB151
	.byte	0x4
	.4byte	.LCFI20-.LFB151
	.byte	0xe
	.uleb128 0x4
	.byte	0x8e
	.uleb128 0x1
	.byte	0x4
	.4byte	.LCFI21-.LCFI20
	.byte	0xe
	.uleb128 0x10
	.byte	0x4
	.4byte	.LCFI22-.LCFI21
	.byte	0xe
	.uleb128 0x4
	.align	2
.LEFDE14:
.LSFDE16:
	.4byte	.LEFDE16-.LASFDE16
.LASFDE16:
	.4byte	.Lframe0
	.4byte	.LFB152
	.4byte	.LFE152-.LFB152
	.byte	0x4
	.4byte	.LCFI23-.LFB152
	.byte	0xe
	.uleb128 0x4
	.byte	0x8e
	.uleb128 0x1
	.byte	0x4
	.4byte	.LCFI24-.LCFI23
	.byte	0xe
	.uleb128 0x18
	.byte	0x4
	.4byte	.LCFI25-.LCFI24
	.byte	0xe
	.uleb128 0x4
	.align	2
.LEFDE16:
.LSFDE18:
	.4byte	.LEFDE18-.LASFDE18
.LASFDE18:
	.4byte	.Lframe0
	.4byte	.LFB153
	.4byte	.LFE153-.LFB153
	.byte	0x4
	.4byte	.LCFI26-.LFB153
	.byte	0xe
	.uleb128 0x4
	.byte	0x8e
	.uleb128 0x1
	.byte	0x4
	.4byte	.LCFI27-.LCFI26
	.byte	0xe
	.uleb128 0x18
	.byte	0x4
	.4byte	.LCFI28-.LCFI27
	.byte	0xe
	.uleb128 0x4
	.align	2
.LEFDE18:
.LSFDE20:
	.4byte	.LEFDE20-.LASFDE20
.LASFDE20:
	.4byte	.Lframe0
	.4byte	.LFB159
	.4byte	.LFE159-.LFB159
	.byte	0x4
	.4byte	.LCFI29-.LFB159
	.byte	0xe
	.uleb128 0x8
	.byte	0x4
	.4byte	.LCFI30-.LCFI29
	.byte	0xe
	.uleb128 0
	.align	2
.LEFDE20:
.LSFDE22:
	.4byte	.LEFDE22-.LASFDE22
.LASFDE22:
	.4byte	.Lframe0
	.4byte	.LFB160
	.4byte	.LFE160-.LFB160
	.byte	0x4
	.4byte	.LCFI31-.LFB160
	.byte	0xe
	.uleb128 0x8
	.byte	0x4
	.4byte	.LCFI32-.LCFI31
	.byte	0xe
	.uleb128 0
	.align	2
.LEFDE22:
.LSFDE24:
	.4byte	.LEFDE24-.LASFDE24
.LASFDE24:
	.4byte	.Lframe0
	.4byte	.LFB162
	.4byte	.LFE162-.LFB162
	.byte	0x4
	.4byte	.LCFI33-.LFB162
	.byte	0xe
	.uleb128 0x8
	.byte	0x4
	.4byte	.LCFI34-.LCFI33
	.byte	0xe
	.uleb128 0
	.align	2
.LEFDE24:
.LSFDE26:
	.4byte	.LEFDE26-.LASFDE26
.LASFDE26:
	.4byte	.Lframe0
	.4byte	.LFB163
	.4byte	.LFE163-.LFB163
	.byte	0x4
	.4byte	.LCFI35-.LFB163
	.byte	0xe
	.uleb128 0x8
	.byte	0x4
	.4byte	.LCFI36-.LCFI35
	.byte	0xe
	.uleb128 0
	.align	2
.LEFDE26:
.LSFDE28:
	.4byte	.LEFDE28-.LASFDE28
.LASFDE28:
	.4byte	.Lframe0
	.4byte	.LFB168
	.4byte	.LFE168-.LFB168
	.byte	0x4
	.4byte	.LCFI37-.LFB168
	.byte	0xe
	.uleb128 0x4
	.byte	0x8e
	.uleb128 0x1
	.byte	0x4
	.4byte	.LCFI38-.LCFI37
	.byte	0xe
	.uleb128 0x18
	.byte	0x4
	.4byte	.LCFI39-.LCFI38
	.byte	0xe
	.uleb128 0x4
	.align	2
.LEFDE28:
.LSFDE30:
	.4byte	.LEFDE30-.LASFDE30
.LASFDE30:
	.4byte	.Lframe0
	.4byte	.LFB169
	.4byte	.LFE169-.LFB169
	.byte	0x4
	.4byte	.LCFI40-.LFB169
	.byte	0xe
	.uleb128 0x4
	.byte	0x8e
	.uleb128 0x1
	.byte	0x4
	.4byte	.LCFI41-.LCFI40
	.byte	0xe
	.uleb128 0x10
	.byte	0x4
	.4byte	.LCFI42-.LCFI41
	.byte	0xe
	.uleb128 0x4
	.align	2
.LEFDE30:
.LSFDE32:
	.4byte	.LEFDE32-.LASFDE32
.LASFDE32:
	.4byte	.Lframe0
	.4byte	.LFB170
	.4byte	.LFE170-.LFB170
	.byte	0x4
	.4byte	.LCFI43-.LFB170
	.byte	0xe
	.uleb128 0x4
	.byte	0x8e
	.uleb128 0x1
	.byte	0x4
	.4byte	.LCFI44-.LCFI43
	.byte	0xe
	.uleb128 0x10
	.byte	0x4
	.4byte	.LCFI45-.LCFI44
	.byte	0xe
	.uleb128 0x4
	.align	2
.LEFDE32:
.LSFDE34:
	.4byte	.LEFDE34-.LASFDE34
.LASFDE34:
	.4byte	.Lframe0
	.4byte	.LFB171
	.4byte	.LFE171-.LFB171
	.byte	0x4
	.4byte	.LCFI46-.LFB171
	.byte	0xe
	.uleb128 0x4
	.byte	0x8e
	.uleb128 0x1
	.byte	0x4
	.4byte	.LCFI47-.LCFI46
	.byte	0xe
	.uleb128 0x10
	.byte	0x4
	.4byte	.LCFI48-.LCFI47
	.byte	0xe
	.uleb128 0x4
	.align	2
.LEFDE34:
.LSFDE36:
	.4byte	.LEFDE36-.LASFDE36
.LASFDE36:
	.4byte	.Lframe0
	.4byte	.LFB172
	.4byte	.LFE172-.LFB172
	.byte	0x4
	.4byte	.LCFI49-.LFB172
	.byte	0xe
	.uleb128 0x4
	.byte	0x8e
	.uleb128 0x1
	.byte	0x4
	.4byte	.LCFI50-.LCFI49
	.byte	0xe
	.uleb128 0x10
	.byte	0x4
	.4byte	.LCFI51-.LCFI50
	.byte	0xe
	.uleb128 0x4
	.align	2
.LEFDE36:
.LSFDE38:
	.4byte	.LEFDE38-.LASFDE38
.LASFDE38:
	.4byte	.Lframe0
	.4byte	.LFB173
	.4byte	.LFE173-.LFB173
	.byte	0x4
	.4byte	.LCFI52-.LFB173
	.byte	0xe
	.uleb128 0x4
	.byte	0x8e
	.uleb128 0x1
	.byte	0x4
	.4byte	.LCFI53-.LCFI52
	.byte	0xe
	.uleb128 0x10
	.byte	0x4
	.4byte	.LCFI54-.LCFI53
	.byte	0xe
	.uleb128 0x4
	.align	2
.LEFDE38:
.LSFDE40:
	.4byte	.LEFDE40-.LASFDE40
.LASFDE40:
	.4byte	.Lframe0
	.4byte	.LFB174
	.4byte	.LFE174-.LFB174
	.byte	0x4
	.4byte	.LCFI55-.LFB174
	.byte	0xe
	.uleb128 0x4
	.byte	0x8e
	.uleb128 0x1
	.byte	0x4
	.4byte	.LCFI56-.LCFI55
	.byte	0xe
	.uleb128 0x10
	.byte	0x4
	.4byte	.LCFI57-.LCFI56
	.byte	0xe
	.uleb128 0x4
	.align	2
.LEFDE40:
.LSFDE42:
	.4byte	.LEFDE42-.LASFDE42
.LASFDE42:
	.4byte	.Lframe0
	.4byte	.LFB175
	.4byte	.LFE175-.LFB175
	.byte	0x4
	.4byte	.LCFI58-.LFB175
	.byte	0xe
	.uleb128 0x8
	.byte	0x4
	.4byte	.LCFI59-.LCFI58
	.byte	0xe
	.uleb128 0
	.align	2
.LEFDE42:
.LSFDE44:
	.4byte	.LEFDE44-.LASFDE44
.LASFDE44:
	.4byte	.Lframe0
	.4byte	.LFB176
	.4byte	.LFE176-.LFB176
	.byte	0x4
	.4byte	.LCFI60-.LFB176
	.byte	0xe
	.uleb128 0x10
	.byte	0x4
	.4byte	.LCFI61-.LCFI60
	.byte	0xe
	.uleb128 0
	.align	2
.LEFDE44:
.LSFDE46:
	.4byte	.LEFDE46-.LASFDE46
.LASFDE46:
	.4byte	.Lframe0
	.4byte	.LFB177
	.4byte	.LFE177-.LFB177
	.byte	0x4
	.4byte	.LCFI62-.LFB177
	.byte	0xe
	.uleb128 0x4
	.byte	0x8e
	.uleb128 0x1
	.byte	0x4
	.4byte	.LCFI63-.LCFI62
	.byte	0xe
	.uleb128 0x18
	.byte	0x4
	.4byte	.LCFI64-.LCFI63
	.byte	0xe
	.uleb128 0x4
	.align	2
.LEFDE46:
.LSFDE48:
	.4byte	.LEFDE48-.LASFDE48
.LASFDE48:
	.4byte	.Lframe0
	.4byte	.LFB178
	.4byte	.LFE178-.LFB178
	.byte	0x4
	.4byte	.LCFI65-.LFB178
	.byte	0xe
	.uleb128 0x4
	.byte	0x8e
	.uleb128 0x1
	.byte	0x4
	.4byte	.LCFI66-.LCFI65
	.byte	0xe
	.uleb128 0x10
	.byte	0x4
	.4byte	.LCFI67-.LCFI66
	.byte	0xe
	.uleb128 0x4
	.align	2
.LEFDE48:
.LSFDE50:
	.4byte	.LEFDE50-.LASFDE50
.LASFDE50:
	.4byte	.Lframe0
	.4byte	.LFB179
	.4byte	.LFE179-.LFB179
	.byte	0x4
	.4byte	.LCFI68-.LFB179
	.byte	0xe
	.uleb128 0x10
	.byte	0x4
	.4byte	.LCFI69-.LCFI68
	.byte	0xe
	.uleb128 0
	.align	2
.LEFDE50:
.LSFDE52:
	.4byte	.LEFDE52-.LASFDE52
.LASFDE52:
	.4byte	.Lframe0
	.4byte	.LFB180
	.4byte	.LFE180-.LFB180
	.byte	0x4
	.4byte	.LCFI70-.LFB180
	.byte	0xe
	.uleb128 0x8
	.byte	0x4
	.4byte	.LCFI71-.LCFI70
	.byte	0xe
	.uleb128 0
	.align	2
.LEFDE52:
	.text
.Letext0:
	.file 3 "/usr/share/segger_embedded_studio_for_arm_7.20/include/stdint.h"
	.file 4 "../../../nRF5_SDK_14.2.0/components/device/nrf52.h"