	.cpu cortex-m4
	.arch armv7e-m
	.fpu fpv4-sp-d16
	.eabi_attribute 27, 1
	.eabi_attribute 28, 1
	.eabi_attribute 20, 1
	.eabi_attribute 21, 1
	.eabi_attribute 23, 3
	.eabi_attribute 24, 1
	.eabi_attribute 25, 1
	.eabi_attribute 26, 1
	.eabi_attribute 30, 6
	.eabi_attribute 34, 1
	.eabi_attribute 38, 1
	.eabi_attribute 18, 4
	.file	"bsp.c"
	.text
.Ltext0:
	.file 1 "/home/youssef/Desktop/work/dwm1001-UWB/nRF5_SDK_14.2.0/components/libraries/bsp/bsp.c"
	.section	.text.bsp_button_is_pressed,"ax",%progbits
	.align	1
	.global	bsp_button_is_pressed
	.syntax unified
	.thumb
	.thumb_func
	.type	bsp_button_is_pressed, %function
bsp_button_is_pressed:
.LFB168:
	.loc 1 113 1
	@ args = 0, pretend = 0, frame = 8
	@ frame_needed = 0, uses_anonymous_args = 0
	push	{lr}
.LCFI0:
	sub	sp, sp, #12
.LCFI1:
	str	r0, [sp, #4]
	.loc 1 114 12
	ldr	r0, [sp, #4]
	bl	bsp_board_button_state_get
	mov	r3, r0
	.loc 1 115 1
	mov	r0, r3
	add	sp, sp, #12
.LCFI2:
	@ sp needed
	ldr	pc, [sp], #4
.LFE168:
	.size	bsp_button_is_pressed, .-bsp_button_is_pressed
	.section	.text.bsp_indication_set,"ax",%progbits
	.align	1
	.global	bsp_indication_set
	.syntax unified
	.thumb
	.thumb_func
	.type	bsp_indication_set, %function
bsp_indication_set:
.LFB169:
	.loc 1 457 1
	@ args = 0, pretend = 0, frame = 16
	@ frame_needed = 0, uses_anonymous_args = 0
	@ link register save eliminated.
	sub	sp, sp, #16
.LCFI3:
	mov	r3, r0
	strb	r3, [sp, #7]
	.loc 1 458 14
	movs	r3, #0
	str	r3, [sp, #12]
	.loc 1 468 12
	ldr	r3, [sp, #12]
	.loc 1 469 1
	mov	r0, r3
	add	sp, sp, #16
.LCFI4:
	@ sp needed
	bx	lr
.LFE169:
	.size	bsp_indication_set, .-bsp_indication_set
	.section	.text.bsp_init,"ax",%progbits
	.align	1
	.global	bsp_init
	.syntax unified
	.thumb
	.thumb_func
	.type	bsp_init, %function
bsp_init:
.LFB170:
	.loc 1 473 1
	@ args = 0, pretend = 0, frame = 16
	@ frame_needed = 0, uses_anonymous_args = 0
	push	{lr}
.LCFI5:
	sub	sp, sp, #20
.LCFI6:
	str	r0, [sp, #4]
	str	r1, [sp]
	.loc 1 474 14
	movs	r3, #0
	str	r3, [sp, #12]
	.loc 1 514 14
	ldr	r3, [sp, #4]
	and	r3, r3, #2
	.loc 1 514 8
	cmp	r3, #0
	beq	.L6
	.loc 1 516 9
	bl	bsp_board_buttons_init
.L6:
	.loc 1 541 12
	ldr	r3, [sp, #12]
	.loc 1 542 1
	mov	r0, r3
	add	sp, sp, #20
.LCFI7:
	@ sp needed
	ldr	pc, [sp], #4
.LFE170:
	.size	bsp_init, .-bsp_init
	.section	.text.bsp_buttons_enable,"ax",%progbits
	.align	1
	.global	bsp_buttons_enable
	.syntax unified
	.thumb
	.thumb_func
	.type	bsp_buttons_enable, %function
bsp_buttons_enable:
.LFB171:
	.loc 1 591 1
	@ args = 0, pretend = 0, frame = 0
	@ frame_needed = 0, uses_anonymous_args = 0
	@ link register save eliminated.
	.loc 1 595 12
	movs	r3, #6
	.loc 1 597 1
	mov	r0, r3
	bx	lr
.LFE171:
	.size	bsp_buttons_enable, .-bsp_buttons_enable
	.section	.text.bsp_buttons_disable,"ax",%progbits
	.align	1
	.global	bsp_buttons_disable
	.syntax unified
	.thumb
	.thumb_func
	.type	bsp_buttons_disable, %function
bsp_buttons_disable:
.LFB172:
	.loc 1 600 1
	@ args = 0, pretend = 0, frame = 0
	@ frame_needed = 0, uses_anonymous_args = 0
	@ link register save eliminated.
	.loc 1 604 12
	movs	r3, #6
	.loc 1 606 1
	mov	r0, r3
	bx	lr
.LFE172:
	.size	bsp_buttons_disable, .-bsp_buttons_disable
	.section	.text.bsp_wakeup_button_enable,"ax",%progbits
	.align	1
	.global	bsp_wakeup_button_enable
	.syntax unified
	.thumb
	.thumb_func
	.type	bsp_wakeup_button_enable, %function
bsp_wakeup_button_enable:
.LFB173:
	.loc 1 609 1
	@ args = 0, pretend = 0, frame = 8
	@ frame_needed = 0, uses_anonymous_args = 0
	@ link register save eliminated.
	sub	sp, sp, #8
.LCFI8:
	str	r0, [sp, #4]
	.loc 1 616 12
	movs	r3, #6
	.loc 1 618 1
	mov	r0, r3
	add	sp, sp, #8
.LCFI9:
	@ sp needed
	bx	lr
.LFE173:
	.size	bsp_wakeup_button_enable, .-bsp_wakeup_button_enable
	.section	.text.bsp_wakeup_button_disable,"ax",%progbits
	.align	1
	.global	bsp_wakeup_button_disable
	.syntax unified
	.thumb
	.thumb_func
	.type	bsp_wakeup_button_disable, %function
bsp_wakeup_button_disable:
.LFB174:
	.loc 1 621 1
	@ args = 0, pretend = 0, frame = 8
	@ frame_needed = 0, uses_anonymous_args = 0
	@ link register save eliminated.
	sub	sp, sp, #8
.LCFI10:
	str	r0, [sp, #4]
	.loc 1 628 12
	movs	r3, #6
	.loc 1 630 1
	mov	r0, r3
	add	sp, sp, #8
.LCFI11:
	@ sp needed
	bx	lr
.LFE174:
	.size	bsp_wakeup_button_disable, .-bsp_wakeup_button_disable
	.section	.debug_frame,"",%progbits
.Lframe0:
	.4byte	.LECIE0-.LSCIE0
.LSCIE0:
	.4byte	0xffffffff
	.byte	0x3
	.ascii	"\000"
	.uleb128 0x1
	.sleb128 -4
	.uleb128 0xe
	.byte	0xc
	.uleb128 0xd
	.uleb128 0
	.align	2
.LECIE0:
.LSFDE0:
	.4byte	.LEFDE0-.LASFDE0
.LASFDE0:
	.4byte	.Lframe0
	.4byte	.LFB168
	.4byte	.LFE168-.LFB168
	.byte	0x4
	.4byte	.LCFI0-.LFB168
	.byte	0xe
	.uleb128 0x4
	.byte	0x8e
	.uleb128 0x1
	.byte	0x4
	.4byte	.LCFI1-.LCFI0
	.byte	0xe
	.uleb128 0x10
	.byte	0x4
	.4byte	.LCFI2-.LCFI1
	.byte	0xe
	.uleb128 0x4
	.align	2
.LEFDE0:
.LSFDE2:
	.4byte	.LEFDE2-.LASFDE2
.LASFDE2:
	.4byte	.Lframe0
	.4byte	.LFB169
	.4byte	.LFE169-.LFB169
	.byte	0x4
	.4byte	.LCFI3-.LFB169
	.byte	0xe
	.uleb128 0x10
	.byte	0x4
	.4byte	.LCFI4-.LCFI3
	.byte	0xe
	.uleb128 0
	.align	2
.LEFDE2:
.LSFDE4:
	.4byte	.LEFDE4-.LASFDE4
.LASFDE4:
	.4byte	.Lframe0
	.4byte	.LFB170
	.4byte	.LFE170-.LFB170
	.byte	0x4
	.4byte	.LCFI5-.LFB170
	.byte	0xe
	.uleb128 0x4
	.byte	0x8e
	.uleb128 0x1
	.byte	0x4
	.4byte	.LCFI6-.LCFI5
	.byte	0xe
	.uleb128 0x18
	.byte	0x4
	.4byte	.LCFI7-.LCFI6
	.byte	0xe
	.uleb128 0x4
	.align	2
.LEFDE4:
.LSFDE6:
	.4byte	.LEFDE6-.LASFDE6
.LASFDE6:
	.4byte	.Lframe0
	.4byte	.LFB171
	.4byte	.LFE171-.LFB171
	.align	2
.LEFDE6:
.LSFDE8:
	.4byte	.LEFDE8-.LASFDE8
.LASFDE8:
	.4byte	.Lframe0
	.4byte	.LFB172
	.4byte	.LFE172-.LFB172
	.align	2
.LEFDE8:
.LSFDE10:
	.4byte	.LEFDE10-.LASFDE10
.LASFDE10:
	.4byte	.Lframe0
	.4byte	.LFB173
	.4byte	.LFE173-.LFB173
	.byte	0x4
	.4byte	.LCFI8-.LFB173
	.byte	0xe
	.uleb128 0x8
	.byte	0x4
	.4byte	.LCFI9-.LCFI8
	.byte	0xe
	.uleb128 0
	.align	2
.LEFDE10:
.LSFDE12:
	.4byte	.LEFDE12-.LASFDE12
.LASFDE12:
	.4byte	.Lframe0
	.4byte	.LFB174
	.4byte	.LFE174-.LFB174
	.byte	0x4
	.4byte	.LCFI10-.LFB174
	.byte	0xe
	.uleb128 0x8
	.byte	0x4
	.4byte	.LCFI11-.LCFI10
	.byte	0xe
	.uleb128 0
	.align	2
.LEFDE12:
	.text
.Letext0:
	.file 2 "/usr/share/segger_embedded_studio_for_arm_7.20/include/stdint.h"
	.file 3 "/home/youssef/Desktop/work/dwm1001-UWB/nRF5_SDK_14.2.0/components/libraries/bsp/bsp.h"
	.file 4 "../../../nRF5_SDK_14.2.0/components/boards/boards.h"